; ModuleID = 'source-C-CXX/56/3198.c'
source_filename = "source-C-CXX/56/3198.c"
target datalayout = "e-m:e-p270:32:32-p271:32:32-p272:64:64-i64:64-f80:128-n8:16:32:64-S128"
target triple = "x86_64-pc-linux-gnu"

@.str = private unnamed_addr constant [3 x i8] c"%d\00", align 1
@.str.1 = private unnamed_addr constant [3 x i8] c"%s\00", align 1

; Function Attrs: nofree nounwind sspstrong uwtable
define dso_local i32 @main() local_unnamed_addr #0 {
  %1 = alloca [100 x i8], align 16
  %2 = alloca i32, align 4
  %3 = getelementptr inbounds [100 x i8], [100 x i8]* %1, i64 0, i64 0
  call void @llvm.lifetime.start.p0i8(i64 100, i8* nonnull %3) #5
  %4 = bitcast i32* %2 to i8*
  call void @llvm.lifetime.start.p0i8(i64 4, i8* nonnull %4) #5
  %5 = call i32 (i8*, ...) @__isoc99_scanf(i8* getelementptr inbounds ([3 x i8], [3 x i8]* @.str, i64 0, i64 0), i32* nonnull %2)
  %6 = load i32, i32* %2, align 4, !tbaa !5
  %7 = icmp sgt i32 %6, 0
  br i1 %7, label %8, label %40

8:                                                ; preds = %0, %35
  %9 = phi i32 [ %37, %35 ], [ 0, %0 ]
  %10 = call i32 (i8*, ...) @__isoc99_scanf(i8* getelementptr inbounds ([3 x i8], [3 x i8]* @.str.1, i64 0, i64 0), i8* nonnull %3)
  %11 = call i64 @strlen(i8* noundef nonnull %3) #6
  %12 = trunc i64 %11 to i32
  %13 = shl i64 %11, 32
  %14 = add i64 %13, -4294967296
  %15 = ashr exact i64 %14, 32
  %16 = getelementptr inbounds [100 x i8], [100 x i8]* %1, i64 0, i64 %15
  %17 = load i8, i8* %16, align 1, !tbaa !9
  switch i8 %17, label %22 [
    i8 114, label %18
    i8 121, label %18
    i8 103, label %20
  ]

18:                                               ; preds = %8, %8
  %19 = add nsw i32 %12, -2
  br label %22

20:                                               ; preds = %8
  %21 = add nsw i32 %12, -3
  br label %22

22:                                               ; preds = %8, %20, %18
  %23 = phi i32 [ %19, %18 ], [ %21, %20 ], [ %12, %8 ]
  %24 = icmp sgt i32 %23, 0
  br i1 %24, label %25, label %35

25:                                               ; preds = %22
  %26 = zext i32 %23 to i64
  br label %27

27:                                               ; preds = %25, %27
  %28 = phi i64 [ 0, %25 ], [ %33, %27 ]
  %29 = getelementptr inbounds [100 x i8], [100 x i8]* %1, i64 0, i64 %28
  %30 = load i8, i8* %29, align 1, !tbaa !9
  %31 = sext i8 %30 to i32
  %32 = call i32 @putchar(i32 %31)
  %33 = add nuw nsw i64 %28, 1
  %34 = icmp eq i64 %33, %26
  br i1 %34, label %35, label %27, !llvm.loop !10

35:                                               ; preds = %27, %22
  %36 = call i32 @putchar(i32 10)
  %37 = add nuw nsw i32 %9, 1
  %38 = load i32, i32* %2, align 4, !tbaa !5
  %39 = icmp slt i32 %37, %38
  br i1 %39, label %8, label %40, !llvm.loop !12

40:                                               ; preds = %35, %0
  call void @llvm.lifetime.end.p0i8(i64 4, i8* nonnull %4) #5
  call void @llvm.lifetime.end.p0i8(i64 100, i8* nonnull %3) #5
  ret i32 0
}

; Function Attrs: argmemonly mustprogress nofree nosync nounwind willreturn
declare void @llvm.lifetime.start.p0i8(i64 immarg, i8* nocapture) #1

; Function Attrs: nofree nounwind
declare noundef i32 @__isoc99_scanf(i8* nocapture noundef readonly, ...) local_unnamed_addr #2

; Function Attrs: argmemonly mustprogress nofree nounwind readonly willreturn
declare i64 @strlen(i8* nocapture) local_unnamed_addr #3

; Function Attrs: argmemonly mustprogress nofree nosync nounwind willreturn
declare void @llvm.lifetime.end.p0i8(i64 immarg, i8* nocapture) #1

; Function Attrs: nofree nounwind
declare noundef i32 @putchar(i32 noundef) local_unnamed_addr #4


!llvm.module.flags = !{!0, !1, !2, !3}
!llvm.ident = !{!4}

!0 = !{i32 1, !"wchar_size", i32 4}
!1 = !{i32 7, !"PIC Level", i32 2}
!2 = !{i32 7, !"PIE Level", i32 2}
!3 = !{i32 7, !"uwtable", i32 1}
!4 = !{!"clang version 13.0.0"}
!5 = !{!6, !6, i64 0}
!6 = !{!"int", !7, i64 0}
!7 = !{!"omnipotent char", !8, i64 0}
!8 = !{!"Simple C/C++ TBAA"}
!9 = !{!7, !7, i64 0}
!10 = distinct !{!10, !11}
!11 = !{!"llvm.loop.mustprogress"}
!12 = distinct !{!12, !11}
